target datalayout = "e-m:e-p270:32:32-p271:32:32-p272:64:64-i64:64-i128:128-f80:128-n8:16:32:64-S128"
target triple = "x86_64-unknown-linux-gnu"

%struct.ecc_point = type { [1 x %struct.sp_int], [1 x %struct.sp_int], [1 x %struct.sp_int] }
%struct.sp_int = type { i32, i32, [129 x i64] }

; Function Attrs: nounwind uwtable
define internal i32 @wc_ecc_new_point_ex(ptr noundef %point, ptr noundef %heap) #0 {
entry:
  %retval = alloca i32, align 4
  %point.addr = alloca ptr, align 8
  %heap.addr = alloca ptr, align 8
  %err = alloca i32, align 4
  %p = alloca ptr, align 8
  %xp = alloca ptr, align 8
  store ptr %point, ptr %point.addr, align 8
  store ptr %heap, ptr %heap.addr, align 8
  store i32 0, ptr %err, align 4
  %0 = load ptr, ptr %point.addr, align 8
  %cmp = icmp eq ptr %0, null
  br i1 %cmp, label %if.then, label %if.end

if.then:                                          ; preds = %entry
  store i32 -173, ptr %retval, align 4
  br label %return

if.end:                                           ; preds = %entry
  %1 = load ptr, ptr %point.addr, align 8
  %2 = load ptr, ptr %1, align 8
  store ptr %2, ptr %p, align 8
  %3 = load ptr, ptr %p, align 8
  %cmp1 = icmp eq ptr %3, null
  br i1 %cmp1, label %if.then2, label %if.end3

if.then2:                                         ; preds = %if.end
  %call = call ptr @wolfSSL_Malloc(i64 noundef 3120)
  store ptr %call, ptr %p, align 8
  br label %if.end3

if.end3:                                          ; preds = %if.then2, %if.end
  %4 = load ptr, ptr %p, align 8
  %cmp4 = icmp eq ptr %4, null
  br i1 %cmp4, label %if.then5, label %if.end6

if.then5:                                         ; preds = %if.end3
  store i32 -125, ptr %retval, align 4
  br label %return

if.end6:                                          ; preds = %if.end3
  %5 = load ptr, ptr %p, align 8
  call void @llvm.memset.p0.i64(ptr align 8 %5, i8 0, i64 3120, i1 false)
  %6 = load ptr, ptr %p, align 8
  %x = getelementptr inbounds %struct.ecc_point, ptr %6, i32 0, i32 0
  %arraydecay = getelementptr inbounds [1 x %struct.sp_int], ptr %x, i64 0, i64 0
  %7 = load ptr, ptr %p, align 8
  %y = getelementptr inbounds %struct.ecc_point, ptr %7, i32 0, i32 1
  %arraydecay7 = getelementptr inbounds [1 x %struct.sp_int], ptr %y, i64 0, i64 0
  %8 = load ptr, ptr %p, align 8
  %z = getelementptr inbounds %struct.ecc_point, ptr %8, i32 0, i32 2
  %arraydecay8 = getelementptr inbounds [1 x %struct.sp_int], ptr %z, i64 0, i64 0
  %call9 = call i32 @sp_init_multi(ptr noundef %arraydecay, ptr noundef %arraydecay7, ptr noundef %arraydecay8, ptr noundef null, ptr noundef null, ptr noundef null)
  store i32 %call9, ptr %err, align 4
  %9 = load i32, ptr %err, align 4
  %cmp10 = icmp ne i32 %9, 0
  br i1 %cmp10, label %if.then11, label %if.end14

if.then11:                                        ; preds = %if.end6
  %10 = load ptr, ptr %p, align 8
  store ptr %10, ptr %xp, align 8
  %11 = load ptr, ptr %xp, align 8
  %tobool = icmp ne ptr %11, null
  br i1 %tobool, label %if.then12, label %if.end13

if.then12:                                        ; preds = %if.then11
  %12 = load ptr, ptr %xp, align 8
  call void @wolfSSL_Free(ptr noundef %12)
  br label %if.end13

if.end13:                                         ; preds = %if.then12, %if.then11
  %13 = load i32, ptr %err, align 4
  store i32 %13, ptr %retval, align 4
  br label %return

if.end14:                                         ; preds = %if.end6
  %14 = load ptr, ptr %p, align 8
  %15 = load ptr, ptr %point.addr, align 8
  store ptr %14, ptr %15, align 8
  %16 = load i32, ptr %err, align 4
  store i32 %16, ptr %retval, align 4
  br label %return

return:                                           ; preds = %if.end14, %if.end13, %if.then5, %if.then
  %17 = load i32, ptr %retval, align 4
  ret i32 %17
}

; Function Attrs: nounwind uwtable
define ptr @wc_ecc_new_point() #0 {
entry:
  %p = alloca ptr, align 8
  store ptr null, ptr %p, align 8
  %call = call i32 @wc_ecc_new_point_ex(ptr noundef %p, ptr noundef null)
  %0 = load ptr, ptr %p, align 8
  ret ptr %0
}